; Function Attrs: mustprogress nounwind uwtable
define dso_local noundef nonnull align 8 dereferenceable(16) ptr @_ZNSt11logic_erroraSERKS_(ptr noundef nonnull returned align 8 captures(ret: address, provenance) dereferenceable(16) %0, ptr noundef nonnull readonly align 8 captures(none) dereferenceable(16) %1) local_unnamed_addr #3 align 2 {
  %3 = getelementptr inbounds nuw i8, ptr %1, i64 8
  %4 = getelementptr inbounds nuw i8, ptr %0, i64 8
  %5 = load ptr, ptr %4, align 8, !tbaa !14
  %6 = load ptr, ptr %3, align 8, !tbaa !14
  store ptr %6, ptr %4, align 8, !tbaa !14
  %7 = getelementptr inbounds i8, ptr %6, i64 -8
  %8 = atomicrmw add ptr %7, i32 1 seq_cst, align 4
  %9 = getelementptr inbounds i8, ptr %5, i64 -8
  %10 = atomicrmw add ptr %9, i32 -1 seq_cst, align 4
  %11 = add i32 %10, -1
  %12 = icmp slt i32 %11, 0
  br i1 %12, label %13, label %_ZNSt3__118__libcpp_refstringaSB8ne210000ERKS0_.exit

13:                                               ; preds = %2
  %14 = getelementptr inbounds i8, ptr %5, i64 -24
  tail call void @_ZdlPv(ptr noundef nonnull %14) #12
  br label %_ZNSt3__118__libcpp_refstringaSB8ne210000ERKS0_.exit

_ZNSt3__118__libcpp_refstringaSB8ne210000ERKS0_.exit: ; preds = %2, %13
  ret ptr %0
}